; Function Attrs: nounwind sspstrong uwtable
define dso_local void @qmp_chardev_send_break(ptr noundef %id, ptr noundef %errp) local_unnamed_addr #0 {
entry:
  %call.i.i = tail call ptr @object_get_root() #13
  %call1.i.i = tail call ptr @container_get(ptr noundef %call.i.i, ptr noundef nonnull @.str) #13
  %call1.i = tail call ptr @object_resolve_path_component(ptr noundef %call1.i.i, ptr noundef %id) #13
  %tobool.not.i = icmp eq ptr %call1.i, null
  br i1 %tobool.not.i, label %if.then, label %qemu_chr_find.exit

qemu_chr_find.exit:                               ; preds = %entry
  %call.i2.i = tail call ptr @object_dynamic_cast_assert(ptr noundef nonnull %call1.i, ptr noundef nonnull @.str.4, ptr noundef nonnull @.str.104, i32 noundef 231, ptr noundef nonnull @__func__.CHARDEV) #13
  %cmp = icmp eq ptr %call.i2.i, null
  br i1 %cmp, label %if.then, label %if.end

if.then:                                          ; preds = %entry, %qemu_chr_find.exit
  tail call void (ptr, ptr, i32, ptr, ptr, ...) @error_setg_internal(ptr noundef %errp, ptr noundef nonnull @.str.2, i32 noundef 1167, ptr noundef nonnull @__func__.qmp_chardev_send_break, ptr noundef nonnull @.str.98, ptr noundef %id) #13
  br label %return

if.end:                                           ; preds = %qemu_chr_find.exit
  %call.i.i3 = tail call ptr @object_get_class(ptr noundef nonnull %call.i2.i) #13
  %call1.i.i4 = tail call ptr @object_class_dynamic_cast_assert(ptr noundef %call.i.i3, ptr noundef nonnull @.str.4, ptr noundef nonnull @.str.104, i32 noundef 231, ptr noundef nonnull @__func__.CHARDEV_GET_CLASS) #13
  %chr_be_event.i = getelementptr inbounds nuw i8, ptr %call1.i.i4, i64 224
  %0 = load ptr, ptr %chr_be_event.i, align 8
  tail call void %0(ptr noundef nonnull %call.i2.i, i32 noundef 0) #13
  br label %return

return:                                           ; preds = %if.end, %if.then
  ret void
}